; Function Attrs: nounwind uwtable
define dso_local void @ExecASUpdateTriggers(ptr noundef %0, ptr noundef %1, ptr noundef captures(address_is_null) %2) local_unnamed_addr #0 {
  %4 = getelementptr inbounds nuw i8, ptr %1, i64 96
  %5 = load ptr, ptr %4, align 8
  %.not = icmp eq ptr %5, null
  br i1 %.not, label %12, label %6

6:                                                ; preds = %3
  %7 = getelementptr inbounds nuw i8, ptr %5, i64 21
  %8 = load i8, ptr %7, align 1, !range !4, !noundef !5
  %9 = trunc nuw i8 %8 to i1
  br i1 %9, label %10, label %12

10:                                               ; preds = %6
  %11 = tail call ptr @ExecGetAllUpdatedCols(ptr noundef nonnull %1, ptr noundef %0) #16
  tail call fastcc void @AfterTriggerSaveEvent(ptr noundef %0, ptr noundef nonnull %1, ptr noundef null, ptr noundef null, i32 noundef 2, i1 noundef zeroext false, ptr noundef null, ptr noundef null, ptr noundef null, ptr noundef %11, ptr noundef %2, i1 noundef zeroext false)
  br label %12

12:                                               ; preds = %10, %6, %3
  ret void
}